; Function Attrs: mustprogress nofree norecurse nosync nounwind willreturn memory(argmem: readwrite) uwtable
define noundef nonnull align 4 dereferenceable(64) ptr @_ZN32pxrInternal_v0_24__pxrReserved__10GfMatrix4f8SetScaleERKNS_7GfVec3fE(ptr noundef nonnull returned writeonly align 4 dereferenceable(64) initializes((0, 64)) %0, ptr noundef nonnull readonly align 4 captures(none) dereferenceable(12) %1) local_unnamed_addr #2 align 2 {
  %3 = load float, ptr %1, align 4
  store float %3, ptr %0, align 4
  %4 = getelementptr inbounds nuw i8, ptr %0, i64 4
  %5 = getelementptr inbounds nuw i8, ptr %1, i64 4
  tail call void @llvm.memset.p0.i64(ptr noundef nonnull align 4 dereferenceable(16) %4, i8 0, i64 16, i1 false)
  %6 = load float, ptr %5, align 4
  %7 = getelementptr inbounds nuw i8, ptr %0, i64 20
  store float %6, ptr %7, align 4
  %8 = getelementptr inbounds nuw i8, ptr %0, i64 24
  %9 = getelementptr inbounds nuw i8, ptr %1, i64 8
  tail call void @llvm.memset.p0.i64(ptr noundef nonnull align 4 dereferenceable(16) %8, i8 0, i64 16, i1 false)
  %10 = load float, ptr %9, align 4
  %11 = getelementptr inbounds nuw i8, ptr %0, i64 40
  store float %10, ptr %11, align 4
  %12 = getelementptr inbounds nuw i8, ptr %0, i64 44
  %13 = getelementptr inbounds nuw i8, ptr %0, i64 60
  tail call void @llvm.memset.p0.i64(ptr noundef nonnull align 4 dereferenceable(16) %12, i8 0, i64 16, i1 false)
  store float 1.000000e+00, ptr %13, align 4
  ret ptr %0
}